Certificate:
    Data:
        Version: 3 (0x2)
        Serial Number: 45 (0x2d)
        Signature Algorithm: sha256WithRSAEncryption
        Issuer: C=US, O=Google, OU=Enterprise, CN=Single Root CA
        Validity
            Not Before: Nov 11 00:46:17 2024 GMT
            Not After : Nov 11 00:46:17 2034 GMT
        Subject: C=US, O=Google, OU=Enterprise, CN=external-client
        Subject Public Key Info:
            Public Key Algorithm: rsaEncryption
                Public-Key: (2048 bit)
                Modulus:
                    00:c6:91:c1:ef:a6:50:1c:4f:81:11:77:54:0f:c1:
                    ba:6f:24:b4:ae:78:26:ef:2d:a5:ee:c9:3d:00:45:
                    34:4d:ce:42:e9:f1:2f:cd:2c:09:a8:be:c4:21:d1:
                    a4:79:8a:85:e5:31:2a:a1:a3:eb:79:88:e3:e4:54:
                    0d:c0:19:e4:fb:45:b2:86:b3:86:a2:ed:1e:58:9a:
                    6d:35:5a:4a:c6:f0:27:e0:2c:c1:1b:44:77:88:21:
                    12:17:83:dd:12:7e:7f:73:17:08:0e:74:0c:11:a8:
                    4a:63:c4:f3:de:dd:f3:83:c3:c2:01:e3:74:a9:98:
                    26:fc:18:c2:84:00:95:ae:3b:b7:4a:9f:f1:47:16:
                    50:1f:67:cb:39:a1:11:dd:d4:b0:50:a1:e0:ba:eb:
                    09:18:8a:bc:e6:9a:78:5b:fb:87:85:77:0b:ef:78:
                    f8:97:5c:fd:80:4b:3b:44:ff:7d:17:10:2e:e1:65:
                    be:ab:92:5a:e7:9e:ea:22:9c:84:a2:38:0c:30:dc:
                    66:e0:f2:e8:f2:ea:28:de:b1:b5:ab:b7:1f:29:a1:
                    6c:c5:b0:97:58:ba:91:6b:42:05:62:77:d3:e5:ae:
                    77:a5:c5:0f:7e:57:8e:1c:80:35:88:08:d0:55:b5:
                    9b:80:bb:dd:7b:8d:1b:20:19:4e:f4:8f:11:94:b3:
                    9c:db
                Exponent: 65537 (0x10001)
        X509v3 extensions:
            X509v3 Extended Key Usage: 
                TLS Web Client Authentication
            X509v3 Key Usage: critical
                Digital Signature
            X509v3 Basic Constraints: 
                CA:FALSE
            X509v3 Subject Key Identifier: 
                CC:83:90:2F:7E:EE:DF:D8:15:0E:F7:F9:3C:63:63:59:03:2C:36:14
            X509v3 Authority Key Identifier: 
                EC:F0:EA:53:53:3F:9F:23:DC:C1:0E:31:10:37:07:DE:DE:E7:6E:F3
            Authority Information Access: 
                CA Issuers - URI:http://pki.esodemoapp2.com/ca/root-ca.cer
            X509v3 CRL Distribution Points: 
                Full Name:
                  URI:http://pki.esodemoapp2.com/ca/root-ca.crl
            X509v3 Subject Alternative Name: 
                URI:spiffe://cluster.local/external-client
    Signature Algorithm: sha256WithRSAEncryption
    Signature Value:
        82:44:e1:16:a1:04:64:54:27:1c:4f:86:46:2b:97:6d:f2:93:
        90:48:0d:06:77:d1:ec:18:2a:4c:ae:0c:fc:5b:c6:68:8c:ec:
        ac:59:9a:24:ab:20:4b:11:9d:4b:99:aa:8c:5a:38:97:f7:56:
        21:b2:36:0d:b4:1f:49:ef:c5:30:15:e9:c4:a9:04:ae:f4:ee:
        2a:64:e6:21:d2:82:fe:59:91:72:76:c8:23:4c:8f:b3:89:06:
        09:1c:dc:f8:aa:96:5b:ed:aa:0f:03:4f:65:b4:90:7f:4e:7f:
        cd:19:c2:a0:ce:91:12:9b:cf:e9:6b:e5:37:47:c8:c0:5a:40:
        ae:5e:25:f8:f7:c9:8e:fa:f5:e2:a8:97:02:64:13:bd:d3:86:
        70:a8:53:18:5a:da:ee:4b:57:66:62:ed:0a:7c:3f:e4:36:7e:
        72:19:84:48:4d:ae:fd:55:10:75:54:59:a8:2f:55:3e:ff:64:
        eb:56:7c:34:7b:48:15:2f:6e:f6:aa:18:85:3e:44:7a:48:d2:
        23:46:6c:8e:58:84:68:f0:fb:0b:37:04:6e:57:93:bb:0b:42:
        0e:8a:a7:84:70:e9:da:35:c5:ec:b6:5a:79:f3:fc:02:b0:a7:
        5b:02:5d:6d:ae:93:f4:27:44:c4:44:74:df:6b:08:55:41:88:
        c3:04:f0:e9
-----BEGIN CERTIFICATE-----
MIIEQDCCAyigAwIBAgIBLTANBgkqhkiG9w0BAQsFADBMMQswCQYDVQQGEwJVUzEP
MA0GA1UECgwGR29vZ2xlMRMwEQYDVQQLDApFbnRlcnByaXNlMRcwFQYDVQQDDA5T
aW5nbGUgUm9vdCBDQTAeFw0yNDExMTEwMDQ2MTdaFw0zNDExMTEwMDQ2MTdaME0x
CzAJBgNVBAYTAlVTMQ8wDQYDVQQKDAZHb29nbGUxEzARBgNVBAsMCkVudGVycHJp
c2UxGDAWBgNVBAMMD2V4dGVybmFsLWNsaWVudDCCASIwDQYJKoZIhvcNAQEBBQAD
ggEPADCCAQoCggEBAMaRwe+mUBxPgRF3VA/Bum8ktK54Ju8tpe7JPQBFNE3OQunx
L80sCai+xCHRpHmKheUxKqGj63mI4+RUDcAZ5PtFsoazhqLtHliabTVaSsbwJ+As
wRtEd4ghEheD3RJ+f3MXCA50DBGoSmPE897d84PDwgHjdKmYJvwYwoQAla47t0qf
8UcWUB9nyzmhEd3UsFCh4LrrCRiKvOaaeFv7h4V3C+94+Jdc/YBLO0T/fRcQLuFl
vquSWuee6iKchKI4DDDcZuDy6PLqKN6xtau3HymhbMWwl1i6kWtCBWJ30+Wud6XF
D35XjhyANYgI0FW1m4C73XuNGyAZTvSPEZSznNsCAwEAAaOCASowggEmMBMGA1Ud
JQQMMAoGCCsGAQUFBwMCMA4GA1UdDwEB/wQEAwIHgDAJBgNVHRMEAjAAMB0GA1Ud
DgQWBBTMg5Avfu7f2BUO9/k8Y2NZAyw2FDAfBgNVHSMEGDAWgBTs8OpTUz+fI9zB
DjEQNwfe3udu8zBFBggrBgEFBQcBAQQ5MDcwNQYIKwYBBQUHMAKGKWh0dHA6Ly9w
a2kuZXNvZGVtb2FwcDIuY29tL2NhL3Jvb3QtY2EuY2VyMDoGA1UdHwQzMDEwL6At
oCuGKWh0dHA6Ly9wa2kuZXNvZGVtb2FwcDIuY29tL2NhL3Jvb3QtY2EuY3JsMDEG
A1UdEQQqMCiGJnNwaWZmZTovL2NsdXN0ZXIubG9jYWwvZXh0ZXJuYWwtY2xpZW50
MA0GCSqGSIb3DQEBCwUAA4IBAQCCROEWoQRkVCccT4ZGK5dt8pOQSA0Gd9HsGCpM
rgz8W8ZojOysWZokqyBLEZ1LmaqMWjiX91YhsjYNtB9J78UwFenEqQSu9O4qZOYh
0oL+WZFydsgjTI+ziQYJHNz4qpZb7aoPA09ltJB/Tn/NGcKgzpESm8/pa+U3R8jA
WkCuXiX498mO+vXiqJcCZBO904ZwqFMYWtruS1dmYu0KfD/kNn5yGYRITa79VRB1
VFmoL1U+/2TrVnw0e0gVL272qhiFPkR6SNIjRmyOWIRo8PsLNwRuV5O7C0IOiqeE
cOnaNcXstlp58/wCsKdbAl1trpP0J0TERHTfawhVQYjDBPDp
-----END CERTIFICATE-----
